target datalayout = "e-m:e-p270:32:32-p271:32:32-p272:64:64-i64:64-i128:128-f80:128-n8:16:32:64-S128"
target triple = "x86_64-pc-linux-gnu"

@wtap_encap = internal constant [14 x i32] [i32 -1, i32 1, i32 2, i32 -1, i32 -1, i32 3, i32 3, i32 -1, i32 -1, i32 -1, i32 -1, i32 -1, i32 -1, i32 4], align 16

; Function Attrs: nounwind null_pointer_is_valid sspstrong uwtable
define internal i32 @netmon_dump_can_write_encap_1_x(i32 noundef %0) #12 {
  %2 = alloca i32, align 4
  %3 = alloca i32, align 4
  store i32 %0, ptr %3, align 4
  %4 = load i32, ptr %3, align 4
  %5 = icmp slt i32 %4, 0
  br i1 %5, label %16, label %6

6:                                                ; preds = %1
  %7 = load i32, ptr %3, align 4
  %8 = zext i32 %7 to i64
  %9 = icmp uge i64 %8, 14
  br i1 %9, label %16, label %10

10:                                               ; preds = %6
  %11 = load i32, ptr %3, align 4
  %12 = sext i32 %11 to i64
  %13 = getelementptr [14 x i32], ptr @wtap_encap, i64 0, i64 %12
  %14 = load i32, ptr %13, align 4
  %15 = icmp eq i32 %14, -1
  br i1 %15, label %16, label %17

16:                                               ; preds = %10, %6, %1
  store i32 -8, ptr %2, align 4
  br label %18

17:                                               ; preds = %10
  store i32 0, ptr %2, align 4
  br label %18

18:                                               ; preds = %17, %16
  %19 = load i32, ptr %2, align 4
  ret i32 %19
}