; Function Attrs: mustprogress nofree norecurse nosync nounwind null_pointer_is_valid sspstrong willreturn memory(none) uwtable
define internal range(i32 -8, 1) i32 @netmon_dump_can_write_encap_1_x(i32 noundef %0) #6 {
  %2 = icmp ugt i32 %0, 13
  %3 = zext nneg i32 %0 to i64
  %4 = shl nuw nsw i64 1, %3
  %5 = and i64 %4, 8089
  %.not = icmp eq i64 %5, 0
  %spec.select = select i1 %.not, i32 0, i32 -8
  %.0 = select i1 %2, i32 -8, i32 %spec.select
  ret i32 %.0
}